target datalayout = "e-m:e-p270:32:32-p271:32:32-p272:64:64-i64:64-i128:128-f80:128-n8:16:32:64-S128"
target triple = "x86_64-pc-linux-gnu"

@.str = private unnamed_addr constant [33 x i8] c"../openssl/crypto/modes/ocb128.c\00", align 1

; Function Attrs: nounwind uwtable
define ptr @CRYPTO_ocb128_new(ptr noundef %0, ptr noundef %1, ptr noundef %2, ptr noundef %3, ptr noundef %4) #0 {
  %6 = alloca ptr, align 8
  %7 = alloca ptr, align 8
  %8 = alloca ptr, align 8
  %9 = alloca ptr, align 8
  %10 = alloca ptr, align 8
  %11 = alloca ptr, align 8
  %12 = alloca ptr, align 8
  %13 = alloca i32, align 4
  %14 = alloca i32, align 4
  store ptr %0, ptr %7, align 8, !tbaa !3
  store ptr %1, ptr %8, align 8, !tbaa !3
  store ptr %2, ptr %9, align 8, !tbaa !3
  store ptr %3, ptr %10, align 8, !tbaa !3
  store ptr %4, ptr %11, align 8, !tbaa !3
  call void @llvm.lifetime.start.p0(i64 8, ptr %12) #5
  call void @llvm.lifetime.start.p0(i64 4, ptr %13) #5
  %15 = call noalias ptr @CRYPTO_malloc(i64 noundef 176, ptr noundef @.str, i32 noundef 137)
  store ptr %15, ptr %12, align 8, !tbaa !7
  %16 = icmp ne ptr %15, null
  br i1 %16, label %17, label %31

17:                                               ; preds = %5
  %18 = load ptr, ptr %12, align 8, !tbaa !7
  %19 = load ptr, ptr %7, align 8, !tbaa !3
  %20 = load ptr, ptr %8, align 8, !tbaa !3
  %21 = load ptr, ptr %9, align 8, !tbaa !3
  %22 = load ptr, ptr %10, align 8, !tbaa !3
  %23 = load ptr, ptr %11, align 8, !tbaa !3
  %24 = call i32 @CRYPTO_ocb128_init(ptr noundef %18, ptr noundef %19, ptr noundef %20, ptr noundef %21, ptr noundef %22, ptr noundef %23)
  store i32 %24, ptr %13, align 4, !tbaa !9
  %25 = load i32, ptr %13, align 4, !tbaa !9
  %26 = icmp ne i32 %25, 0
  br i1 %26, label %27, label %29

27:                                               ; preds = %17
  %28 = load ptr, ptr %12, align 8, !tbaa !7
  store ptr %28, ptr %6, align 8
  store i32 1, ptr %14, align 4
  br label %32

29:                                               ; preds = %17
  %30 = load ptr, ptr %12, align 8, !tbaa !7
  call void @CRYPTO_free(ptr noundef %30, ptr noundef @.str, i32 noundef 142)
  br label %31

31:                                               ; preds = %29, %5
  store ptr null, ptr %6, align 8
  store i32 1, ptr %14, align 4
  br label %32

32:                                               ; preds = %31, %27
  call void @llvm.lifetime.end.p0(i64 4, ptr %13) #5
  call void @llvm.lifetime.end.p0(i64 8, ptr %12) #5
  %33 = load ptr, ptr %6, align 8
  ret ptr %33
}