; Function Attrs: nounwind uwtable
define ptr @CRYPTO_ocb128_new(ptr noundef %0, ptr noundef %1, ptr noundef %2, ptr noundef %3, ptr noundef %4) local_unnamed_addr #0 {
  %6 = tail call noalias ptr @CRYPTO_malloc(i64 noundef 176, ptr noundef nonnull @.str, i32 noundef 137) #6
  %.not = icmp eq ptr %6, null
  br i1 %.not, label %10, label %7

7:                                                ; preds = %5
  %8 = tail call i32 @CRYPTO_ocb128_init(ptr noundef nonnull %6, ptr noundef %0, ptr noundef %1, ptr noundef %2, ptr noundef %3, ptr noundef %4)
  %.not10 = icmp eq i32 %8, 0
  br i1 %.not10, label %9, label %10

9:                                                ; preds = %7
  tail call void @CRYPTO_free(ptr noundef nonnull %6, ptr noundef nonnull @.str, i32 noundef 142) #6
  br label %10

10:                                               ; preds = %5, %9, %7
  %.0 = phi ptr [ %6, %7 ], [ null, %9 ], [ null, %5 ]
  ret ptr %.0
}